target datalayout = "e-m:e-p270:32:32-p271:32:32-p272:64:64-i64:64-i128:128-f80:128-n8:16:32:64-S128"
target triple = "x86_64-pc-linux-gnu"

%"class.doctest::String" = type { %union.anon.7 }
%union.anon.7 = type { %"struct.doctest::String::view", [8 x i8] }
%"struct.doctest::String::view" = type { ptr, i32, i32 }
%"struct.doctest::TestRunStats" = type { i32, i32, i32, i32, i32, i32 }
%"struct.doctest::detail::ContextState" = type <{ %"struct.doctest::ContextOptions.base", i8, %"struct.doctest::TestRunStats", %"struct.doctest::CurrentTestCaseStats", %"class.doctest::detail::MultiLaneAtomic", %"class.doctest::detail::MultiLaneAtomic", %"class.std::vector.9", %"class.std::vector.14", ptr, %"struct.doctest::detail::Timer", %"class.std::vector.19", i8, [7 x i8], %"class.std::vector.24", %"class.std::vector.24", %"class.std::unordered_set", i64, %"struct.std::atomic.34", [7 x i8] }>
%"struct.doctest::ContextOptions.base" = type <{ ptr, %"class.doctest::String", ptr, %"class.doctest::String", %"class.doctest::String", i32, i32, i32, i32, i32, i8, i8, i8, i8, i8, i8, i8, i8, i8, i8, i8, i8, i8, i8, i8, i8, i8, i8, i8, i8, i8, i8, i8, i8, i8, i8, i8 }>
%"struct.doctest::CurrentTestCaseStats" = type { i32, i32, double, i32, i8 }
%"class.doctest::detail::MultiLaneAtomic" = type { [32 x %"struct.doctest::detail::MultiLaneAtomic<int>::CacheLineAlignedAtomic"] }
%"struct.doctest::detail::MultiLaneAtomic<int>::CacheLineAlignedAtomic" = type { %"struct.std::atomic", [60 x i8] }
%"struct.std::atomic" = type { %"struct.std::__atomic_base" }
%"struct.std::__atomic_base" = type { i32 }
%"class.std::vector.9" = type { %"struct.std::_Vector_base.10" }
%"struct.std::_Vector_base.10" = type { %"struct.std::_Vector_base<std::vector<doctest::String>, std::allocator<std::vector<doctest::String>>>::_Vector_impl" }
%"struct.std::_Vector_base<std::vector<doctest::String>, std::allocator<std::vector<doctest::String>>>::_Vector_impl" = type { %"struct.std::_Vector_base<std::vector<doctest::String>, std::allocator<std::vector<doctest::String>>>::_Vector_impl_data" }
%"struct.std::_Vector_base<std::vector<doctest::String>, std::allocator<std::vector<doctest::String>>>::_Vector_impl_data" = type { ptr, ptr, ptr }
%"class.std::vector.14" = type { %"struct.std::_Vector_base.15" }
%"struct.std::_Vector_base.15" = type { %"struct.std::_Vector_base<doctest::IReporter *, std::allocator<doctest::IReporter *>>::_Vector_impl" }
%"struct.std::_Vector_base<doctest::IReporter *, std::allocator<doctest::IReporter *>>::_Vector_impl" = type { %"struct.std::_Vector_base<doctest::IReporter *, std::allocator<doctest::IReporter *>>::_Vector_impl_data" }
%"struct.std::_Vector_base<doctest::IReporter *, std::allocator<doctest::IReporter *>>::_Vector_impl_data" = type { ptr, ptr, ptr }
%"struct.doctest::detail::Timer" = type { i64 }
%"class.std::vector.19" = type { %"struct.std::_Vector_base.20" }
%"struct.std::_Vector_base.20" = type { %"struct.std::_Vector_base<doctest::String, std::allocator<doctest::String>>::_Vector_impl" }
%"struct.std::_Vector_base<doctest::String, std::allocator<doctest::String>>::_Vector_impl" = type { %"struct.std::_Vector_base<doctest::String, std::allocator<doctest::String>>::_Vector_impl_data" }
%"struct.std::_Vector_base<doctest::String, std::allocator<doctest::String>>::_Vector_impl_data" = type { ptr, ptr, ptr }
%"class.std::vector.24" = type { %"struct.std::_Vector_base.25" }
%"struct.std::_Vector_base.25" = type { %"struct.std::_Vector_base<doctest::SubcaseSignature, std::allocator<doctest::SubcaseSignature>>::_Vector_impl" }
%"struct.std::_Vector_base<doctest::SubcaseSignature, std::allocator<doctest::SubcaseSignature>>::_Vector_impl" = type { %"struct.std::_Vector_base<doctest::SubcaseSignature, std::allocator<doctest::SubcaseSignature>>::_Vector_impl_data" }
%"struct.std::_Vector_base<doctest::SubcaseSignature, std::allocator<doctest::SubcaseSignature>>::_Vector_impl_data" = type { ptr, ptr, ptr }
%"class.std::unordered_set" = type { %"class.std::_Hashtable" }
%"class.std::_Hashtable" = type { ptr, i64, %"struct.std::__detail::_Hash_node_base", i64, %"struct.std::__detail::_Prime_rehash_policy", ptr }
%"struct.std::__detail::_Hash_node_base" = type { ptr }
%"struct.std::__detail::_Prime_rehash_policy" = type { float, i64 }
%"struct.std::atomic.34" = type { %"struct.std::__atomic_base.35" }
%"struct.std::__atomic_base.35" = type { i8 }
%"class.doctest::Context" = type { ptr }
%"class.__gnu_cxx::__normal_iterator.56" = type { ptr }

@_ZN7doctest6StringD1Ev = dso_local unnamed_addr alias void (ptr), ptr @_ZN7doctest6StringD2Ev

; Function Attrs: inlinehint mustprogress nounwind uwtable
define linkonce_odr dso_local void @_ZSt8_DestroyIN7doctest6StringEEvPT_(ptr noundef %0) #4 comdat {
  %2 = alloca ptr, align 8
  store ptr %0, ptr %2, align 8, !tbaa !59
  %3 = load ptr, ptr %2, align 8, !tbaa !59
  call void @_ZN7doctest6StringD1Ev(ptr noundef nonnull align 8 dereferenceable(24) %3) #7
  ret void
}

; Function Attrs: mustprogress uwtable
define linkonce_odr dso_local void @_ZNSt12_Destroy_auxILb0EE9__destroyIPN7doctest6StringEEEvT_S5_(ptr noundef %0, ptr noundef %1) #8 comdat align 2 {
  %3 = alloca ptr, align 8
  %4 = alloca ptr, align 8
  store ptr %0, ptr %3, align 8, !tbaa !59
  store ptr %1, ptr %4, align 8, !tbaa !59
  br label %5

5:                                                ; preds = %11, %2
  %6 = load ptr, ptr %3, align 8, !tbaa !59
  %7 = load ptr, ptr %4, align 8, !tbaa !59
  %8 = icmp ne ptr %6, %7
  br i1 %8, label %9, label %14

9:                                                ; preds = %5
  %10 = load ptr, ptr %3, align 8, !tbaa !59
  call void @_ZSt8_DestroyIN7doctest6StringEEvPT_(ptr noundef %10)
  br label %11

11:                                               ; preds = %9
  %12 = load ptr, ptr %3, align 8, !tbaa !59
  %13 = getelementptr inbounds nuw %"class.doctest::String", ptr %12, i32 1
  store ptr %13, ptr %3, align 8, !tbaa !59
  br label %5, !llvm.loop !606

14:                                               ; preds = %5
  ret void
}

; Function Attrs: inlinehint mustprogress uwtable
define linkonce_odr dso_local void @_ZSt8_DestroyIPN7doctest6StringEEvT_S3_(ptr noundef %0, ptr noundef %1) #9 comdat {
  %3 = alloca ptr, align 8
  %4 = alloca ptr, align 8
  store ptr %0, ptr %3, align 8, !tbaa !59
  store ptr %1, ptr %4, align 8, !tbaa !59
  %5 = load ptr, ptr %3, align 8, !tbaa !59
  %6 = load ptr, ptr %4, align 8, !tbaa !59
  call void @_ZNSt12_Destroy_auxILb0EE9__destroyIPN7doctest6StringEEEvT_S5_(ptr noundef %5, ptr noundef %6)
  ret void
}

; Function Attrs: noinline noreturn nounwind uwtable
define linkonce_odr hidden void @__clang_call_terminate(ptr noundef %0) #17 comdat {
  %2 = call ptr @__cxa_begin_catch(ptr %0) #7
  call void @_ZSt9terminatev() #33
  unreachable
}

; Function Attrs: inlinehint mustprogress uwtable
define linkonce_odr dso_local void @_ZSt8_DestroyIPN7doctest6StringES1_EvT_S3_RSaIT0_E(ptr noundef %0, ptr noundef %1, ptr noundef nonnull align 1 dereferenceable(1) %2) #9 comdat {
  %4 = alloca ptr, align 8
  %5 = alloca ptr, align 8
  %6 = alloca ptr, align 8
  store ptr %0, ptr %4, align 8, !tbaa !59
  store ptr %1, ptr %5, align 8, !tbaa !59
  store ptr %2, ptr %6, align 8, !tbaa !601
  %7 = load ptr, ptr %4, align 8, !tbaa !59
  %8 = load ptr, ptr %5, align 8, !tbaa !59
  call void @_ZSt8_DestroyIPN7doctest6StringEEvT_S3_(ptr noundef %7, ptr noundef %8)
  ret void
}

; Function Attrs: mustprogress nounwind uwtable
define linkonce_odr dso_local noundef nonnull align 1 dereferenceable(1) ptr @_ZNSt12_Vector_baseIN7doctest6StringESaIS1_EE19_M_get_Tp_allocatorEv(ptr noundef nonnull align 8 dereferenceable(24) %0) #1 comdat align 2 {
  %2 = alloca ptr, align 8
  store ptr %0, ptr %2, align 8, !tbaa !603
  %3 = load ptr, ptr %2, align 8
  %4 = getelementptr inbounds nuw %"struct.std::_Vector_base.20", ptr %3, i32 0, i32 0
  ret ptr %4
}

; Function Attrs: mustprogress nounwind uwtable
define linkonce_odr dso_local void @_ZNSt6vectorIN7doctest6StringESaIS1_EE15_M_erase_at_endEPS1_(ptr noundef nonnull align 8 dereferenceable(24) %0, ptr noundef %1) #1 comdat align 2 personality ptr @__gxx_personality_v0 {
  %3 = alloca ptr, align 8
  %4 = alloca ptr, align 8
  %5 = alloca i64, align 8
  store ptr %0, ptr %3, align 8, !tbaa !126
  store ptr %1, ptr %4, align 8, !tbaa !59
  %6 = load ptr, ptr %3, align 8
  call void @llvm.lifetime.start.p0(i64 8, ptr %5) #7
  %7 = getelementptr inbounds nuw %"struct.std::_Vector_base.20", ptr %6, i32 0, i32 0
  %8 = getelementptr inbounds nuw %"struct.std::_Vector_base<doctest::String, std::allocator<doctest::String>>::_Vector_impl_data", ptr %7, i32 0, i32 1
  %9 = load ptr, ptr %8, align 8, !tbaa !432
  %10 = load ptr, ptr %4, align 8, !tbaa !59
  %11 = ptrtoint ptr %9 to i64
  %12 = ptrtoint ptr %10 to i64
  %13 = sub i64 %11, %12
  %14 = sdiv exact i64 %13, 24
  store i64 %14, ptr %5, align 8, !tbaa !53
  %15 = load i64, ptr %5, align 8, !tbaa !53
  %16 = icmp ne i64 %15, 0
  br i1 %16, label %17, label %27

17:                                               ; preds = %2
  %18 = load ptr, ptr %4, align 8, !tbaa !59
  %19 = getelementptr inbounds nuw %"struct.std::_Vector_base.20", ptr %6, i32 0, i32 0
  %20 = getelementptr inbounds nuw %"struct.std::_Vector_base<doctest::String, std::allocator<doctest::String>>::_Vector_impl_data", ptr %19, i32 0, i32 1
  %21 = load ptr, ptr %20, align 8, !tbaa !432
  %22 = call noundef nonnull align 1 dereferenceable(1) ptr @_ZNSt12_Vector_baseIN7doctest6StringESaIS1_EE19_M_get_Tp_allocatorEv(ptr noundef nonnull align 8 dereferenceable(24) %6) #7
  invoke void @_ZSt8_DestroyIPN7doctest6StringES1_EvT_S3_RSaIT0_E(ptr noundef %18, ptr noundef %21, ptr noundef nonnull align 1 dereferenceable(1) %22)
          to label %23 unwind label %28

23:                                               ; preds = %17
  %24 = load ptr, ptr %4, align 8, !tbaa !59
  %25 = getelementptr inbounds nuw %"struct.std::_Vector_base.20", ptr %6, i32 0, i32 0
  %26 = getelementptr inbounds nuw %"struct.std::_Vector_base<doctest::String, std::allocator<doctest::String>>::_Vector_impl_data", ptr %25, i32 0, i32 1
  store ptr %24, ptr %26, align 8, !tbaa !432
  br label %27

27:                                               ; preds = %23, %2
  call void @llvm.lifetime.end.p0(i64 8, ptr %5) #7
  ret void

28:                                               ; preds = %17
  %29 = landingpad { ptr, i32 }
          catch ptr null
  %30 = extractvalue { ptr, i32 } %29, 0
  call void @__clang_call_terminate(ptr %30) #33
  unreachable
}

; Function Attrs: mustprogress nounwind uwtable
define linkonce_odr dso_local noundef nonnull align 8 dereferenceable(8) ptr @_ZNK9__gnu_cxx17__normal_iteratorIPSt6vectorIN7doctest6StringESaIS3_EES1_IS5_SaIS5_EEE4baseEv(ptr noundef nonnull align 8 dereferenceable(8) %0) #1 comdat align 2 {
  %2 = alloca ptr, align 8
  store ptr %0, ptr %2, align 8, !tbaa !339
  %3 = load ptr, ptr %2, align 8
  %4 = getelementptr inbounds nuw %"class.__gnu_cxx::__normal_iterator.56", ptr %3, i32 0, i32 0
  ret ptr %4
}

; Function Attrs: mustprogress nounwind uwtable
define linkonce_odr dso_local void @_ZN9__gnu_cxx17__normal_iteratorIPSt6vectorIN7doctest6StringESaIS3_EES1_IS5_SaIS5_EEEC2ERKS6_(ptr noundef nonnull align 8 dereferenceable(8) %0, ptr noundef nonnull align 8 dereferenceable(8) %1) unnamed_addr #1 comdat align 2 {
  %3 = alloca ptr, align 8
  %4 = alloca ptr, align 8
  store ptr %0, ptr %3, align 8, !tbaa !339
  store ptr %1, ptr %4, align 8, !tbaa !1070
  %5 = load ptr, ptr %3, align 8
  %6 = getelementptr inbounds nuw %"class.__gnu_cxx::__normal_iterator.56", ptr %5, i32 0, i32 0
  %7 = load ptr, ptr %4, align 8, !tbaa !1070
  %8 = load ptr, ptr %7, align 8, !tbaa !126
  store ptr %8, ptr %6, align 8, !tbaa !341
  ret void
}

; Function Attrs: mustprogress nounwind uwtable
define linkonce_odr dso_local noundef nonnull align 8 dereferenceable(8) ptr @_ZN9__gnu_cxx17__normal_iteratorIPSt6vectorIN7doctest6StringESaIS3_EES1_IS5_SaIS5_EEEppEv(ptr noundef nonnull align 8 dereferenceable(8) %0) #1 comdat align 2 {
  %2 = alloca ptr, align 8
  store ptr %0, ptr %2, align 8, !tbaa !339
  %3 = load ptr, ptr %2, align 8
  %4 = getelementptr inbounds nuw %"class.__gnu_cxx::__normal_iterator.56", ptr %3, i32 0, i32 0
  %5 = load ptr, ptr %4, align 8, !tbaa !341
  %6 = getelementptr inbounds nuw %"class.std::vector.19", ptr %5, i32 1
  store ptr %6, ptr %4, align 8, !tbaa !341
  ret ptr %3
}

; Function Attrs: mustprogress nounwind uwtable
define linkonce_odr dso_local void @_ZNSt6vectorIN7doctest6StringESaIS1_EE5clearEv(ptr noundef nonnull align 8 dereferenceable(24) %0) #1 comdat align 2 {
  %2 = alloca ptr, align 8
  store ptr %0, ptr %2, align 8, !tbaa !126
  %3 = load ptr, ptr %2, align 8
  %4 = getelementptr inbounds nuw %"struct.std::_Vector_base.20", ptr %3, i32 0, i32 0
  %5 = getelementptr inbounds nuw %"struct.std::_Vector_base<doctest::String, std::allocator<doctest::String>>::_Vector_impl_data", ptr %4, i32 0, i32 0
  %6 = load ptr, ptr %5, align 8, !tbaa !343
  call void @_ZNSt6vectorIN7doctest6StringESaIS1_EE15_M_erase_at_endEPS1_(ptr noundef nonnull align 8 dereferenceable(24) %3, ptr noundef %6) #7
  ret void
}

; Function Attrs: mustprogress nounwind uwtable
define linkonce_odr dso_local noundef nonnull align 8 dereferenceable(24) ptr @_ZNK9__gnu_cxx17__normal_iteratorIPSt6vectorIN7doctest6StringESaIS3_EES1_IS5_SaIS5_EEEdeEv(ptr noundef nonnull align 8 dereferenceable(8) %0) #1 comdat align 2 {
  %2 = alloca ptr, align 8
  store ptr %0, ptr %2, align 8, !tbaa !339
  %3 = load ptr, ptr %2, align 8
  %4 = getelementptr inbounds nuw %"class.__gnu_cxx::__normal_iterator.56", ptr %3, i32 0, i32 0
  %5 = load ptr, ptr %4, align 8, !tbaa !341
  ret ptr %5
}

; Function Attrs: inlinehint mustprogress nounwind uwtable
define linkonce_odr dso_local noundef zeroext i1 @_ZN9__gnu_cxxneIPSt6vectorIN7doctest6StringESaIS3_EES1_IS5_SaIS5_EEEEbRKNS_17__normal_iteratorIT_T0_EESE_(ptr noundef nonnull align 8 dereferenceable(8) %0, ptr noundef nonnull align 8 dereferenceable(8) %1) #4 comdat {
  %3 = alloca ptr, align 8
  %4 = alloca ptr, align 8
  store ptr %0, ptr %3, align 8, !tbaa !339
  store ptr %1, ptr %4, align 8, !tbaa !339
  %5 = load ptr, ptr %3, align 8, !tbaa !339
  %6 = call noundef nonnull align 8 dereferenceable(8) ptr @_ZNK9__gnu_cxx17__normal_iteratorIPSt6vectorIN7doctest6StringESaIS3_EES1_IS5_SaIS5_EEE4baseEv(ptr noundef nonnull align 8 dereferenceable(8) %5) #7
  %7 = load ptr, ptr %6, align 8, !tbaa !126
  %8 = load ptr, ptr %4, align 8, !tbaa !339
  %9 = call noundef nonnull align 8 dereferenceable(8) ptr @_ZNK9__gnu_cxx17__normal_iteratorIPSt6vectorIN7doctest6StringESaIS3_EES1_IS5_SaIS5_EEE4baseEv(ptr noundef nonnull align 8 dereferenceable(8) %8) #7
  %10 = load ptr, ptr %9, align 8, !tbaa !126
  %11 = icmp ne ptr %7, %10
  ret i1 %11
}

; Function Attrs: mustprogress nounwind uwtable
define linkonce_odr dso_local ptr @_ZNSt6vectorIS_IN7doctest6StringESaIS1_EESaIS3_EE3endEv(ptr noundef nonnull align 8 dereferenceable(24) %0) #1 comdat align 2 {
  %2 = alloca %"class.__gnu_cxx::__normal_iterator.56", align 8
  %3 = alloca ptr, align 8
  store ptr %0, ptr %3, align 8, !tbaa !128
  %4 = load ptr, ptr %3, align 8
  %5 = getelementptr inbounds nuw %"struct.std::_Vector_base.10", ptr %4, i32 0, i32 0
  %6 = getelementptr inbounds nuw %"struct.std::_Vector_base<std::vector<doctest::String>, std::allocator<std::vector<doctest::String>>>::_Vector_impl_data", ptr %5, i32 0, i32 1
  call void @_ZN9__gnu_cxx17__normal_iteratorIPSt6vectorIN7doctest6StringESaIS3_EES1_IS5_SaIS5_EEEC2ERKS6_(ptr noundef nonnull align 8 dereferenceable(8) %2, ptr noundef nonnull align 8 dereferenceable(8) %6) #7
  %7 = getelementptr inbounds nuw %"class.__gnu_cxx::__normal_iterator.56", ptr %2, i32 0, i32 0
  %8 = load ptr, ptr %7, align 8
  ret ptr %8
}

; Function Attrs: mustprogress nounwind uwtable
define linkonce_odr dso_local ptr @_ZNSt6vectorIS_IN7doctest6StringESaIS1_EESaIS3_EE5beginEv(ptr noundef nonnull align 8 dereferenceable(24) %0) #1 comdat align 2 {
  %2 = alloca %"class.__gnu_cxx::__normal_iterator.56", align 8
  %3 = alloca ptr, align 8
  store ptr %0, ptr %3, align 8, !tbaa !128
  %4 = load ptr, ptr %3, align 8
  %5 = getelementptr inbounds nuw %"struct.std::_Vector_base.10", ptr %4, i32 0, i32 0
  %6 = getelementptr inbounds nuw %"struct.std::_Vector_base<std::vector<doctest::String>, std::allocator<std::vector<doctest::String>>>::_Vector_impl_data", ptr %5, i32 0, i32 0
  call void @_ZN9__gnu_cxx17__normal_iteratorIPSt6vectorIN7doctest6StringESaIS3_EES1_IS5_SaIS5_EEEC2ERKS6_(ptr noundef nonnull align 8 dereferenceable(8) %2, ptr noundef nonnull align 8 dereferenceable(8) %6) #7
  %7 = getelementptr inbounds nuw %"class.__gnu_cxx::__normal_iterator.56", ptr %2, i32 0, i32 0
  %8 = load ptr, ptr %7, align 8
  ret ptr %8
}

; Function Attrs: mustprogress nounwind uwtable
define dso_local void @_ZN7doctest7Context12clearFiltersEv(ptr noundef nonnull align 8 dereferenceable(8) %0) #1 align 2 {
  %2 = alloca ptr, align 8
  %3 = alloca ptr, align 8
  %4 = alloca %"class.__gnu_cxx::__normal_iterator.56", align 8
  %5 = alloca %"class.__gnu_cxx::__normal_iterator.56", align 8
  %6 = alloca ptr, align 8
  store ptr %0, ptr %2, align 8, !tbaa !306
  %7 = load ptr, ptr %2, align 8
  call void @llvm.lifetime.start.p0(i64 8, ptr %3) #7
  %8 = getelementptr inbounds nuw %"class.doctest::Context", ptr %7, i32 0, i32 0
  %9 = load ptr, ptr %8, align 8, !tbaa !310
  %10 = getelementptr inbounds nuw %"struct.doctest::detail::ContextState", ptr %9, i32 0, i32 6
  store ptr %10, ptr %3, align 8, !tbaa !128
  call void @llvm.lifetime.start.p0(i64 8, ptr %4) #7
  %11 = load ptr, ptr %3, align 8, !tbaa !128
  %12 = call ptr @_ZNSt6vectorIS_IN7doctest6StringESaIS1_EESaIS3_EE5beginEv(ptr noundef nonnull align 8 dereferenceable(24) %11) #7
  %13 = getelementptr inbounds nuw %"class.__gnu_cxx::__normal_iterator.56", ptr %4, i32 0, i32 0
  store ptr %12, ptr %13, align 8
  call void @llvm.lifetime.start.p0(i64 8, ptr %5) #7
  %14 = load ptr, ptr %3, align 8, !tbaa !128
  %15 = call ptr @_ZNSt6vectorIS_IN7doctest6StringESaIS1_EESaIS3_EE3endEv(ptr noundef nonnull align 8 dereferenceable(24) %14) #7
  %16 = getelementptr inbounds nuw %"class.__gnu_cxx::__normal_iterator.56", ptr %5, i32 0, i32 0
  store ptr %15, ptr %16, align 8
  br label %17

17:                                               ; preds = %23, %1
  %18 = call noundef zeroext i1 @_ZN9__gnu_cxxneIPSt6vectorIN7doctest6StringESaIS3_EES1_IS5_SaIS5_EEEEbRKNS_17__normal_iteratorIT_T0_EESE_(ptr noundef nonnull align 8 dereferenceable(8) %4, ptr noundef nonnull align 8 dereferenceable(8) %5) #7
  br i1 %18, label %20, label %19

19:                                               ; preds = %17
  call void @llvm.lifetime.end.p0(i64 8, ptr %5) #7
  call void @llvm.lifetime.end.p0(i64 8, ptr %4) #7
  call void @llvm.lifetime.end.p0(i64 8, ptr %3) #7
  br label %25

20:                                               ; preds = %17
  call void @llvm.lifetime.start.p0(i64 8, ptr %6) #7
  %21 = call noundef nonnull align 8 dereferenceable(24) ptr @_ZNK9__gnu_cxx17__normal_iteratorIPSt6vectorIN7doctest6StringESaIS3_EES1_IS5_SaIS5_EEEdeEv(ptr noundef nonnull align 8 dereferenceable(8) %4) #7
  store ptr %21, ptr %6, align 8, !tbaa !126
  %22 = load ptr, ptr %6, align 8, !tbaa !126
  call void @_ZNSt6vectorIN7doctest6StringESaIS1_EE5clearEv(ptr noundef nonnull align 8 dereferenceable(24) %22) #7
  call void @llvm.lifetime.end.p0(i64 8, ptr %6) #7
  br label %23

23:                                               ; preds = %20
  %24 = call noundef nonnull align 8 dereferenceable(8) ptr @_ZN9__gnu_cxx17__normal_iteratorIPSt6vectorIN7doctest6StringESaIS3_EES1_IS5_SaIS5_EEEppEv(ptr noundef nonnull align 8 dereferenceable(8) %4) #7
  br label %17

25:                                               ; preds = %19
  ret void
}