; Function Attrs: mustprogress nounwind uwtable
define dso_local void @_ZN7doctest7Context12clearFiltersEv(ptr noundef nonnull readonly align 8 captures(none) dereferenceable(8) %0) local_unnamed_addr #7 align 2 personality ptr @__gxx_personality_v0 {
  %2 = load ptr, ptr %0, align 8, !tbaa !323
  %3 = getelementptr inbounds nuw i8, ptr %2, i64 4280
  %4 = load ptr, ptr %3, align 8, !tbaa !359
  %5 = getelementptr inbounds nuw i8, ptr %2, i64 4288
  %6 = load ptr, ptr %5, align 8, !tbaa !359
  %.not7 = icmp eq ptr %4, %6
  br i1 %.not7, label %._crit_edge, label %.lr.ph

._crit_edge:                                      ; preds = %_ZNSt6vectorIN7doctest6StringESaIS1_EE5clearEv.exit, %1
  ret void

.lr.ph:                                           ; preds = %1, %_ZNSt6vectorIN7doctest6StringESaIS1_EE5clearEv.exit
  %.sroa.04.08 = phi ptr [ %18, %_ZNSt6vectorIN7doctest6StringESaIS1_EE5clearEv.exit ], [ %4, %1 ]
  %7 = load ptr, ptr %.sroa.04.08, align 8, !tbaa !284
  %8 = getelementptr inbounds nuw i8, ptr %.sroa.04.08, i64 8
  %9 = load ptr, ptr %8, align 8, !tbaa !282
  %.not.i.i = icmp eq ptr %9, %7
  br i1 %.not.i.i, label %_ZNSt6vectorIN7doctest6StringESaIS1_EE5clearEv.exit, label %.lr.ph.i.i.i.i.i

.lr.ph.i.i.i.i.i:                                 ; preds = %.lr.ph, %_ZSt8_DestroyIN7doctest6StringEEvPT_.exit.i.i.i.i.i
  %.05.i.i.i.i.i = phi ptr [ %17, %_ZSt8_DestroyIN7doctest6StringEEvPT_.exit.i.i.i.i.i ], [ %7, %.lr.ph ]
  %10 = getelementptr inbounds nuw i8, ptr %.05.i.i.i.i.i, i64 23
  %11 = load i8, ptr %10, align 1, !tbaa !38
  %12 = icmp sgt i8 %11, -1
  br i1 %12, label %_ZSt8_DestroyIN7doctest6StringEEvPT_.exit.i.i.i.i.i, label %13

13:                                               ; preds = %.lr.ph.i.i.i.i.i
  %14 = load ptr, ptr %.05.i.i.i.i.i, align 8, !tbaa !38
  %15 = icmp eq ptr %14, null
  br i1 %15, label %_ZSt8_DestroyIN7doctest6StringEEvPT_.exit.i.i.i.i.i, label %16

16:                                               ; preds = %13
  tail call void @_ZdaPv(ptr noundef nonnull %14) #48
  br label %_ZSt8_DestroyIN7doctest6StringEEvPT_.exit.i.i.i.i.i

_ZSt8_DestroyIN7doctest6StringEEvPT_.exit.i.i.i.i.i: ; preds = %16, %13, %.lr.ph.i.i.i.i.i
  %17 = getelementptr inbounds nuw i8, ptr %.05.i.i.i.i.i, i64 24
  %.not.i.i.i.i.i = icmp eq ptr %17, %9
  br i1 %.not.i.i.i.i.i, label %_ZSt8_DestroyIPN7doctest6StringES1_EvT_S3_RSaIT0_E.exit.i.i, label %.lr.ph.i.i.i.i.i, !llvm.loop !352

_ZSt8_DestroyIPN7doctest6StringES1_EvT_S3_RSaIT0_E.exit.i.i: ; preds = %_ZSt8_DestroyIN7doctest6StringEEvPT_.exit.i.i.i.i.i
  store ptr %7, ptr %8, align 8, !tbaa !282
  br label %_ZNSt6vectorIN7doctest6StringESaIS1_EE5clearEv.exit

_ZNSt6vectorIN7doctest6StringESaIS1_EE5clearEv.exit: ; preds = %.lr.ph, %_ZSt8_DestroyIPN7doctest6StringES1_EvT_S3_RSaIT0_E.exit.i.i
  %18 = getelementptr inbounds nuw i8, ptr %.sroa.04.08, i64 24
  %.not = icmp eq ptr %18, %6
  br i1 %.not, label %._crit_edge, label %.lr.ph
}